target datalayout = "e-m:e-p270:32:32-p271:32:32-p272:64:64-i64:64-i128:128-f80:128-n8:16:32:64-S128"
target triple = "x86_64-pc-linux-gnu"

%struct.b2BodyId = type { i32, i16, i16 }
%struct.b2Vec2 = type { float, float }
%struct.b2Rot = type { float, float }
%struct.b2BodyArray = type { ptr, i32, i32 }
%struct.b2BodySimArray = type { ptr, i32, i32 }
%struct.b2BodyStateArray = type { ptr, i32, i32 }
%struct.b2World = type { %struct.b2ArenaAllocator, %struct.b2BroadPhase, %struct.b2ConstraintGraph, %struct.b2IdPool, %struct.b2BodyArray, %struct.b2IdPool, %struct.b2SolverSetArray, %struct.b2IdPool, %struct.b2JointArray, %struct.b2IdPool, %struct.b2ContactArray, %struct.b2IdPool, %struct.b2IslandArray, %struct.b2IdPool, %struct.b2IdPool, %struct.b2ShapeArray, %struct.b2ChainShapeArray, %struct.b2SensorArray, %struct.b2TaskContextArray, %struct.b2SensorTaskContextArray, %struct.b2BodyMoveEventArray, %struct.b2SensorBeginTouchEventArray, %struct.b2ContactBeginTouchEventArray, [2 x %struct.b2SensorEndTouchEventArray], [2 x %struct.b2ContactEndTouchEventArray], i32, %struct.b2ContactHitEventArray, %struct.b2BitSet, %struct.b2BitSet, %struct.b2BitSet, i64, i32, %struct.b2Vec2, float, float, float, float, float, float, float, float, ptr, ptr, i16, %struct.b2Profile, ptr, ptr, ptr, ptr, i32, ptr, ptr, ptr, ptr, ptr, float, i32, i32, i16, i8, i8, i8, i8, i8, i8 }
%struct.b2ArenaAllocator = type { ptr, i32, i32, i32, i32, %struct.b2ArenaEntryArray }
%struct.b2ArenaEntryArray = type { ptr, i32, i32 }
%struct.b2BroadPhase = type { [3 x %struct.b2DynamicTree], i32, %struct.b2HashSet, %struct.b2IntArray, ptr, ptr, i32, %struct.b2AtomicInt, %struct.b2HashSet }
%struct.b2DynamicTree = type { ptr, i32, i32, i32, i32, i32, ptr, ptr, ptr, ptr, i32 }
%struct.b2IntArray = type { ptr, i32, i32 }
%struct.b2AtomicInt = type { i32 }
%struct.b2HashSet = type { ptr, i32, i32 }
%struct.b2ConstraintGraph = type { [12 x %struct.b2GraphColor] }
%struct.b2GraphColor = type { %struct.b2BitSet, %struct.b2ContactSimArray, %struct.b2JointSimArray, %union.anon }
%struct.b2ContactSimArray = type { ptr, i32, i32 }
%struct.b2JointSimArray = type { ptr, i32, i32 }
%union.anon = type { ptr }
%struct.b2SolverSetArray = type { ptr, i32, i32 }
%struct.b2JointArray = type { ptr, i32, i32 }
%struct.b2ContactArray = type { ptr, i32, i32 }
%struct.b2IslandArray = type { ptr, i32, i32 }
%struct.b2IdPool = type { %struct.b2IntArray, i32 }
%struct.b2ShapeArray = type { ptr, i32, i32 }
%struct.b2ChainShapeArray = type { ptr, i32, i32 }
%struct.b2SensorArray = type { ptr, i32, i32 }
%struct.b2TaskContextArray = type { ptr, i32, i32 }
%struct.b2SensorTaskContextArray = type { ptr, i32, i32 }
%struct.b2BodyMoveEventArray = type { ptr, i32, i32 }
%struct.b2SensorBeginTouchEventArray = type { ptr, i32, i32 }
%struct.b2ContactBeginTouchEventArray = type { ptr, i32, i32 }
%struct.b2SensorEndTouchEventArray = type { ptr, i32, i32 }
%struct.b2ContactEndTouchEventArray = type { ptr, i32, i32 }
%struct.b2ContactHitEventArray = type { ptr, i32, i32 }
%struct.b2BitSet = type { ptr, i32, i32 }
%struct.b2Profile = type { float, float, float, float, float, float, float, float, float, float, float, float, float, float, float, float, float, float, float, float, float, float }
%struct.b2Body = type { [32 x i8], ptr, i32, i32, i32, i32, i32, i32, i32, i32, i32, i32, i32, i32, float, float, float, float, i32, i32, i32, i16, i8, i8, i8, i8 }
%struct.b2Transform = type { %struct.b2Vec2, %struct.b2Rot }
%struct.b2SolverSet = type { %struct.b2BodySimArray, %struct.b2BodyStateArray, %struct.b2JointSimArray, %struct.b2ContactSimArray, %struct.b2IslandSimArray, i32 }
%struct.b2IslandSimArray = type { ptr, i32, i32 }
%struct.b2BodySim = type { %struct.b2Transform, %struct.b2Vec2, %struct.b2Rot, %struct.b2Vec2, %struct.b2Vec2, %struct.b2Vec2, float, float, float, float, float, float, float, float, i32, i8, i8, i8, i8, i8 }
%struct.b2BodyState = type { %struct.b2Vec2, float, i32, %struct.b2Vec2, %struct.b2Rot }

; Function Attrs: inlinehint nounwind uwtable
define internal ptr @b2BodySimArray_Get(ptr noundef %0, i32 noundef %1) #3 {
  %3 = alloca ptr, align 8
  %4 = alloca i32, align 4
  store ptr %0, ptr %3, align 8, !tbaa !12
  store i32 %1, ptr %4, align 4, !tbaa !3
  %5 = load ptr, ptr %3, align 8, !tbaa !12
  %6 = getelementptr inbounds nuw %struct.b2BodySimArray, ptr %5, i32 0, i32 0
  %7 = load ptr, ptr %6, align 8, !tbaa !14
  %8 = load i32, ptr %4, align 4, !tbaa !3
  %9 = sext i32 %8 to i64
  %10 = getelementptr inbounds %struct.b2BodySim, ptr %7, i64 %9
  ret ptr %10
}

; Function Attrs: inlinehint nounwind uwtable
define internal ptr @b2BodyStateArray_Get(ptr noundef %0, i32 noundef %1) #3 {
  %3 = alloca ptr, align 8
  %4 = alloca i32, align 4
  store ptr %0, ptr %3, align 8, !tbaa !12
  store i32 %1, ptr %4, align 4, !tbaa !3
  %5 = load ptr, ptr %3, align 8, !tbaa !12
  %6 = getelementptr inbounds nuw %struct.b2BodyStateArray, ptr %5, i32 0, i32 0
  %7 = load ptr, ptr %6, align 8, !tbaa !19
  %8 = load i32, ptr %4, align 4, !tbaa !3
  %9 = sext i32 %8 to i64
  %10 = getelementptr inbounds %struct.b2BodyState, ptr %7, i64 %9
  ret ptr %10
}

; Function Attrs: inlinehint nounwind uwtable
define internal ptr @b2SolverSetArray_Get(ptr noundef %0, i32 noundef %1) #3 {
  %3 = alloca ptr, align 8
  %4 = alloca i32, align 4
  store ptr %0, ptr %3, align 8, !tbaa !12
  store i32 %1, ptr %4, align 4, !tbaa !3
  %5 = load ptr, ptr %3, align 8, !tbaa !12
  %6 = getelementptr inbounds nuw %struct.b2SolverSetArray, ptr %5, i32 0, i32 0
  %7 = load ptr, ptr %6, align 8, !tbaa !40
  %8 = load i32, ptr %4, align 4, !tbaa !3
  %9 = sext i32 %8 to i64
  %10 = getelementptr inbounds %struct.b2SolverSet, ptr %7, i64 %9
  ret ptr %10
}

; Function Attrs: nounwind uwtable
define hidden zeroext i1 @b2WakeBody(ptr noundef %0, ptr noundef %1) #0 {
  %3 = alloca i1, align 1
  %4 = alloca ptr, align 8
  %5 = alloca ptr, align 8
  store ptr %0, ptr %4, align 8, !tbaa !24
  store ptr %1, ptr %5, align 8, !tbaa !29
  %6 = load ptr, ptr %5, align 8, !tbaa !29
  %7 = getelementptr inbounds nuw %struct.b2Body, ptr %6, i32 0, i32 2
  %8 = load i32, ptr %7, align 8, !tbaa !30
  %9 = icmp sge i32 %8, 3
  br i1 %9, label %10, label %15

10:                                               ; preds = %2
  %11 = load ptr, ptr %4, align 8, !tbaa !24
  %12 = load ptr, ptr %5, align 8, !tbaa !29
  %13 = getelementptr inbounds nuw %struct.b2Body, ptr %12, i32 0, i32 2
  %14 = load i32, ptr %13, align 8, !tbaa !30
  call void @b2WakeSolverSet(ptr noundef %11, i32 noundef %14)
  store i1 true, ptr %3, align 1
  br label %16

15:                                               ; preds = %2
  store i1 false, ptr %3, align 1
  br label %16

16:                                               ; preds = %15, %10
  %17 = load i1, ptr %3, align 1
  ret i1 %17
}

; Function Attrs: inlinehint nounwind uwtable
define internal ptr @b2BodyArray_Get(ptr noundef %0, i32 noundef %1) #3 {
  %3 = alloca ptr, align 8
  %4 = alloca i32, align 4
  store ptr %0, ptr %3, align 8, !tbaa !12
  store i32 %1, ptr %4, align 4, !tbaa !3
  %5 = load ptr, ptr %3, align 8, !tbaa !12
  %6 = getelementptr inbounds nuw %struct.b2BodyArray, ptr %5, i32 0, i32 0
  %7 = load ptr, ptr %6, align 8, !tbaa !7
  %8 = load i32, ptr %4, align 4, !tbaa !3
  %9 = sext i32 %8 to i64
  %10 = getelementptr inbounds %struct.b2Body, ptr %7, i64 %9
  ret ptr %10
}

; Function Attrs: nounwind uwtable
define void @b2Body_ApplyAngularImpulse(i64 %0, float noundef %1, i1 noundef zeroext %2) #0 {
  %4 = alloca %struct.b2BodyId, align 4
  %5 = alloca float, align 4
  %6 = alloca i8, align 1
  %7 = alloca ptr, align 8
  %8 = alloca i32, align 4
  %9 = alloca ptr, align 8
  %10 = alloca i32, align 4
  %11 = alloca ptr, align 8
  %12 = alloca ptr, align 8
  %13 = alloca ptr, align 8
  store i64 %0, ptr %4, align 4
  store float %1, ptr %5, align 4, !tbaa !39
  %14 = zext i1 %2 to i8
  store i8 %14, ptr %6, align 1, !tbaa !102
  call void @llvm.lifetime.start.p0(i64 8, ptr %7) #8
  %15 = getelementptr inbounds nuw %struct.b2BodyId, ptr %4, i32 0, i32 1
  %16 = load i16, ptr %15, align 4, !tbaa !87
  %17 = zext i16 %16 to i32
  %18 = call ptr @b2GetWorld(i32 noundef %17)
  store ptr %18, ptr %7, align 8, !tbaa !24
  call void @llvm.lifetime.start.p0(i64 4, ptr %8) #8
  %19 = getelementptr inbounds nuw %struct.b2BodyId, ptr %4, i32 0, i32 0
  %20 = load i32, ptr %19, align 4, !tbaa !26
  %21 = sub nsw i32 %20, 1
  store i32 %21, ptr %8, align 4, !tbaa !3
  call void @llvm.lifetime.start.p0(i64 8, ptr %9) #8
  %22 = load ptr, ptr %7, align 8, !tbaa !24
  %23 = getelementptr inbounds nuw %struct.b2World, ptr %22, i32 0, i32 4
  %24 = load i32, ptr %8, align 4, !tbaa !3
  %25 = call ptr @b2BodyArray_Get(ptr noundef %23, i32 noundef %24)
  store ptr %25, ptr %9, align 8, !tbaa !29
  %26 = load i8, ptr %6, align 1, !tbaa !102, !range !93, !noundef !94
  %27 = trunc i8 %26 to i1
  br i1 %27, label %28, label %37

28:                                               ; preds = %3
  %29 = load ptr, ptr %9, align 8, !tbaa !29
  %30 = getelementptr inbounds nuw %struct.b2Body, ptr %29, i32 0, i32 2
  %31 = load i32, ptr %30, align 8, !tbaa !30
  %32 = icmp sge i32 %31, 3
  br i1 %32, label %33, label %37

33:                                               ; preds = %28
  %34 = load ptr, ptr %7, align 8, !tbaa !24
  %35 = load ptr, ptr %9, align 8, !tbaa !29
  %36 = call zeroext i1 @b2WakeBody(ptr noundef %34, ptr noundef %35)
  br label %37

37:                                               ; preds = %33, %28, %3
  %38 = load ptr, ptr %9, align 8, !tbaa !29
  %39 = getelementptr inbounds nuw %struct.b2Body, ptr %38, i32 0, i32 2
  %40 = load i32, ptr %39, align 8, !tbaa !30
  %41 = icmp eq i32 %40, 2
  br i1 %41, label %42, label %66

42:                                               ; preds = %37
  call void @llvm.lifetime.start.p0(i64 4, ptr %10) #8
  %43 = load ptr, ptr %9, align 8, !tbaa !29
  %44 = getelementptr inbounds nuw %struct.b2Body, ptr %43, i32 0, i32 3
  %45 = load i32, ptr %44, align 4, !tbaa !36
  store i32 %45, ptr %10, align 4, !tbaa !3
  call void @llvm.lifetime.start.p0(i64 8, ptr %11) #8
  %46 = load ptr, ptr %7, align 8, !tbaa !24
  %47 = getelementptr inbounds nuw %struct.b2World, ptr %46, i32 0, i32 6
  %48 = call ptr @b2SolverSetArray_Get(ptr noundef %47, i32 noundef 2)
  store ptr %48, ptr %11, align 8, !tbaa !34
  call void @llvm.lifetime.start.p0(i64 8, ptr %12) #8
  %49 = load ptr, ptr %11, align 8, !tbaa !34
  %50 = getelementptr inbounds nuw %struct.b2SolverSet, ptr %49, i32 0, i32 1
  %51 = load i32, ptr %10, align 4, !tbaa !3
  %52 = call ptr @b2BodyStateArray_Get(ptr noundef %50, i32 noundef %51)
  store ptr %52, ptr %12, align 8, !tbaa !137
  call void @llvm.lifetime.start.p0(i64 8, ptr %13) #8
  %53 = load ptr, ptr %11, align 8, !tbaa !34
  %54 = getelementptr inbounds nuw %struct.b2SolverSet, ptr %53, i32 0, i32 0
  %55 = load i32, ptr %10, align 4, !tbaa !3
  %56 = call ptr @b2BodySimArray_Get(ptr noundef %54, i32 noundef %55)
  store ptr %56, ptr %13, align 8, !tbaa !37
  %57 = load ptr, ptr %13, align 8, !tbaa !37
  %58 = getelementptr inbounds nuw %struct.b2BodySim, ptr %57, i32 0, i32 8
  %59 = load float, ptr %58, align 4, !tbaa !120
  %60 = load float, ptr %5, align 4, !tbaa !39
  %61 = fmul float %59, %60
  %62 = load ptr, ptr %12, align 8, !tbaa !137
  %63 = getelementptr inbounds nuw %struct.b2BodyState, ptr %62, i32 0, i32 1
  %64 = load float, ptr %63, align 4, !tbaa !140
  %65 = fadd float %64, %61
  store float %65, ptr %63, align 4, !tbaa !140
  call void @llvm.lifetime.end.p0(i64 8, ptr %13) #8
  call void @llvm.lifetime.end.p0(i64 8, ptr %12) #8
  call void @llvm.lifetime.end.p0(i64 8, ptr %11) #8
  call void @llvm.lifetime.end.p0(i64 4, ptr %10) #8
  br label %66

66:                                               ; preds = %42, %37
  call void @llvm.lifetime.end.p0(i64 8, ptr %9) #8
  call void @llvm.lifetime.end.p0(i64 4, ptr %8) #8
  call void @llvm.lifetime.end.p0(i64 8, ptr %7) #8
  ret void
}