; Function Attrs: nounwind uwtable
define void @b2Body_ApplyAngularImpulse(i64 %0, float noundef %1, i1 noundef zeroext %2) local_unnamed_addr #0 {
  %.sroa.2.0.extract.shift = lshr i64 %0, 32
  %.sroa.2.0.extract.trunc = trunc nuw i64 %.sroa.2.0.extract.shift to i32
  %4 = and i32 %.sroa.2.0.extract.trunc, 65535
  %5 = tail call ptr @b2GetWorld(i32 noundef %4) #10
  %6 = getelementptr inbounds nuw i8, ptr %5, i64 1032
  %.val = load ptr, ptr %6, align 8, !tbaa !10
  %7 = shl i64 %0, 32
  %sext = add i64 %7, -4294967296
  %8 = ashr exact i64 %sext, 25
  %9 = getelementptr inbounds i8, ptr %.val, i64 %8
  br i1 %2, label %10, label %14

10:                                               ; preds = %3
  %11 = getelementptr inbounds nuw i8, ptr %9, i64 40
  %12 = load i32, ptr %11, align 8, !tbaa !19
  %13 = icmp sgt i32 %12, 2
  br i1 %13, label %b2WakeBody.exit, label %14

b2WakeBody.exit:                                  ; preds = %10
  tail call void @b2WakeSolverSet(ptr noundef nonnull %5, i32 noundef %12) #10
  br label %14

14:                                               ; preds = %b2WakeBody.exit, %10, %3
  %15 = getelementptr inbounds nuw i8, ptr %9, i64 40
  %16 = load i32, ptr %15, align 8, !tbaa !19
  %17 = icmp eq i32 %16, 2
  br i1 %17, label %18, label %31

18:                                               ; preds = %14
  %19 = getelementptr inbounds nuw i8, ptr %9, i64 44
  %20 = load i32, ptr %19, align 4, !tbaa !27
  %21 = getelementptr inbounds nuw i8, ptr %5, i64 1072
  %.val15 = load ptr, ptr %21, align 8, !tbaa !24
  %22 = getelementptr inbounds nuw i8, ptr %.val15, i64 176
  %23 = getelementptr inbounds nuw i8, ptr %.val15, i64 192
  %.val17 = load ptr, ptr %23, align 8, !tbaa !18
  %24 = sext i32 %20 to i64
  %.val16 = load ptr, ptr %22, align 8, !tbaa !14
  %25 = getelementptr inbounds %struct.b2BodySim, ptr %.val16, i64 %24, i32 8
  %26 = load float, ptr %25, align 4, !tbaa !193
  %27 = fmul float %1, %26
  %28 = getelementptr inbounds %struct.b2BodyState, ptr %.val17, i64 %24, i32 1
  %29 = load float, ptr %28, align 4, !tbaa !117
  %30 = fadd float %29, %27
  store float %30, ptr %28, align 4, !tbaa !117
  br label %31

31:                                               ; preds = %18, %14
  ret void
}